(dp1
S'art'
p2
S'CHAR(512)'
p3
sS'creator'
p4
S'CHAR(512)'
p5
sS'title'
p6
S'CHAR(512)'
p7
sS'id'
p8
S'INTEGER PRIMARY KEY AUTOINCREMENT'
p9
sS's_type'
p10
S'CHAR(512)'
p11
sS's_id'
p12
S'CHAR(512)'
p13
sS'artname'
p14
S'CHAR(512)'
p15
sS'arturi'
p16
S'CHAR(512)'
p17
sS'data'
p18
S'CHAR(512)'
p19
sS'albumid'
p20
S'CHAR(512)'
p21
s.