(dp1
S'title'
p2
S'CHAR(512)'
p3
sS'type'
p4
S'CHAR(512)'
p5
sS'refid'
p6
S'CHAR(512)'
p7
sS'parentid'
p8
S'CHAR(512)'
p9
sS'serverid'
p10
S'CHAR(512)'
p11
sS'data'
p12
S'CHAR(512)'
p13
sS'id'
p14
S'INTEGER PRIMARY KEY AUTOINCREMENT'
p15
s.