(dp1
S'output'
p2
S''
sS'layer'
p3
S'/Users/bwhitman/outside/echonest/now-playing-radiator/python-sonos/web2py/applications/sonospy/views/default/user.html'
p4
sS'code'
p5
S'response.write(\'<!DOCTYPE html PUBLIC "-//W3C//DTD XHTML 1.0 Transitional//EN" "http://www.w3.org/TR/xhtml1/DTD/xhtml1-transitional.dtd">\\n<html xmlns="http://www.w3.org/1999/xhtml" xml:lang="\',escape=False)\nresponse.write(T.accepted_language or \'en\')\nresponse.write(\'">\\n  <head>\\n    \\n    <title>\',escape=False)\nresponse.write(response.title or request.application)\nresponse.write(\'</title>\\n\\n    \',escape=False)\nif request.vars and (request.vars[\'M\'] == \'P\' or request.vars[\'M\'] == \'L\'):\n    response.write(\'\\n        <meta name="viewport" content="width=device-width, initial-scale=1.0, maximum-scale=1.0, user-scalable=0"/>\\n    \',escape=False)\nelse:\n    response.write(\'    \\n        <meta http-equiv="Content-Type" content="text/html; charset=UTF-8" />     \\n        \',escape=False)\n    pass\nresponse.write(\'\\n\\n    \',escape=False)\nresponse.files.append(URL(request.application,\'static\',\'photogallery.js\'))\nresponse.write(\'\\n\\n    <script language="JavaScript" type="text/javascript" src="/sonospy/static/ContentFlow/contentflow_src.js" load="sonos"></script>\\n\\n    \',escape=False)\nresponse.files.append(URL(request.application,\'static\',\'base.css\'))\nresponse.write(\'\\n    \',escape=False)\nresponse.files.append(URL(request.application,\'static\',\'sonos.css\'))\nresponse.write(\'\\n\\n    \',escape=False)\nresponse.files.append(URL(request.application,\'static\',\'ContentFlow/contentflow.css\'))\nresponse.write(\'\\n    \\n    \',escape=False)\nif request.vars and request.vars[\'M\'] == \'P\':\n    response.write(\'\\n        \',escape=False)\n    response.files.append(URL(request.application,\'static\',\'sonoslayoutmobp.css\'))\n    response.write(\'\\n    \',escape=False)\nelif request.vars and request.vars[\'M\'] == \'L\':\n    response.write(\'\\n        \',escape=False)\n    response.files.append(URL(request.application,\'static\',\'sonoslayoutmobl.css\'))\n    response.write(\'\\n    \',escape=False)\nelse:\n    response.write(\'    \\n        \',escape=False)\n    response.files.append(URL(request.application,\'static\',\'sonoslayoutpc.css\'))\n    response.write(\'\\n        \',escape=False)\n    pass\nresponse.write(\'\\n    \',escape=False)\nresponse.files.insert(0,URL(r=request,c=\'static\',f=\'jquery.js\'))\nresponse.files.insert(1,URL(r=request,c=\'static\',f=\'calendar.css\'))\nresponse.files.insert(2,URL(r=request,c=\'static\',f=\'calendar.js\'))\nresponse.files.insert(3,URL(r=request,c=\'static\',f=\'jquery-ui.css\'))\nresponse.files.insert(4,URL(r=request,c=\'static\',f=\'jquery-ui.js\'))\nresponse.files.insert(5,URL(r=request,c=\'static\',f=\'jquery.contextmenu.css\'))\nresponse.files.insert(6,URL(r=request,c=\'static\',f=\'jquery.contextmenu.js\'))\nresponse.files.insert(7,URL(r=request,c=\'static\',f=\'jquery-ui.sonos.css\'))\nresponse.files.insert(8,URL(r=request,c=\'static\',f=\'jquery.sizes.js\'))\nfor _item in response.meta or []:\n    response.write(\'\\n     <meta name="\',escape=False)\n    response.write(_item)\n    response.write(\'" content="\',escape=False)\n    response.write(response.meta[_item])\n    response.write(\'" />\',escape=False)\n    pass\nfor _k,_file in enumerate(response.files or []):\n    if _file in response.files[:_k]:\n        continue\n    elif _file[-4:].lower()==\'.css\':\n        response.write(\'\\n     <link href="\',escape=False)\n        response.write(_file)\n        response.write(\'" rel="stylesheet" type="text/css" charset="utf-8" />\',escape=False)\n    elif _file[-3:].lower()==\'.js\':\n        response.write(\'\\n     <script src="\',escape=False)\n        response.write(_file)\n        response.write(\'" type="text/javascript"></script>\',escape=False)\n        pass\n    pass\nresponse.write(\'\\n<script type="text/javascript"><!--\\nfunction popup(url) {\\n  newwindow=window.open(url,\\\'name\\\',\\\'height=400,width=600\\\');\\n  if (window.focus) newwindow.focus();\\n  return false;\\n}\\nfunction collapse(id) { jQuery(\\\'#\\\'+id).slideToggle(); }\\nfunction fade(id,value) { if(value>0) jQuery(\\\'#\\\'+id).hide().fadeIn(\\\'slow\\\'); else jQuery(\\\'#\\\'+id).show().fadeOut(\\\'slow\\\'); }\\nfunction ajax(u,s,t) {\\n  var query="";\\n  for(i=0; i<s.length; i++) { \\n     if(i>0) query=query+"&";\\n     query=query+encodeURIComponent(s[i])+"="+encodeURIComponent(document.getElementById(s[i]).value);\\n  }\\n  jQuery.ajax({type: "POST", url: u, data: query, success: function(msg) { if(t==\\\':eval\\\') eval(msg); else document.getElementById(t).innerHTML=msg; } });  \\n}\\nfunction ajax2(u,s,t) {\\n  console.log("ajax2",u,s,t);\\n  var query="";\\n  for(i=0; i<s.length; i++) { \\n     if(i>0) query=query+"&";\\n     entry=s[i].split(\\\'=\\\');\\n     console.log(entry);\\n     key=entry[0];\\n     value=entry[1];\\n     query=query+encodeURIComponent(key)+"="+encodeURIComponent(value);\\n  }\\n  console.log(query);\\n  jQuery.ajax({type: "POST", url: u, data: query, success: function(msg) { if(t==\\\':eval\\\') eval(msg); else document.getElementById(t).innerHTML=msg; } });  \\n}\\nfunction ajax3(u,s,t,c) {\\n  console.log("ajax3",u,s,t,c);\\n  var query="";\\n  for(i=0; i<s.length; i++) { \\n     if(i>0) query=query+"&";\\n     entry=s[i].split(\\\'=\\\');\\n     console.log(entry);\\n     key=entry[0];\\n     value=entry[1];\\n     query=query+encodeURIComponent(key)+"="+encodeURIComponent(value);\\n  }\\n  console.log(query);\\n  jQuery.ajax({type: "POST", url: u, data: query, success: function(msg) { if(t==\\\':eval\\\') eval(msg); else document.getElementById(t).innerHTML=msg; }, complete: function(){ eval(c) } });  \\n}\\nString.prototype.reverse = function () { return this.split(\\\'\\\').reverse().join(\\\'\\\');};\\nfunction web2py_ajax_init() {\\n  jQuery(\\\'.hidden\\\').hide();\\n  jQuery(\\\'.error\\\').hide().slideDown(\\\'slow\\\');\\n  jQuery(\\\'.flash\\\').click(function() { jQuery(this).fadeOut(\\\'slow\\\'); return false; });\\n  jQuery(\\\'input.integer\\\').keyup(function(){this.value=this.value.reverse().replace(/[^0-9\\\\-]|\\\\-(?=.)/g,\\\'\\\').reverse();});\\n  jQuery(\\\'input.double\\\').keyup(function(){this.value=this.value.reverse().replace(/[^0-9\\\\-\\\\.]|[\\\\-](?=.)|[\\\\.](?=[0-9]*[\\\\.])/g,\\\'\\\').reverse();});\\n  jQuery("input[type=\\\'checkbox\\\'].delete").click(function() { if(this.checked) if(!confirm("\',escape=False)\nresponse.write(T(\'Sure you want to delete this object?\'))\nresponse.write(\'")) this.checked=false; }); \\n  try {jQuery("input.date").focus( function() {Calendar.setup({\\n     inputField:this.id, ifFormat:"\',escape=False)\nresponse.write(T(\'%Y-%m-%d\'))\nresponse.write(\'", showsTime:false\\n  }); }); } catch(e) {};\\n  try { jQuery("input.datetime").focus( function() {Calendar.setup({\\n     inputField:this.id, ifFormat:"\',escape=False)\nresponse.write(T(\'%Y-%m-%d %H:%M:%S\'))\nresponse.write(\'", showsTime: true,timeFormat: "24"\\n  }); }); } catch(e) {};\\n  try { jQuery("input.time").clockpick({\\n      starthour:0, endhour:23, showminutes:true, military:true\\n  }); } catch(e) {};\\n};\\njQuery(document).ready(function(){\\n   // create a dummy menu to capture right click from rest of page\\n   var dummymenu2 = [{\\\'Dummy\\\':function (){}}];\\n   $(\\\'#fullpage\\\').contextMenu(dummymenu2,{beforeShow:function bsm(e){return false}});\\n   // create the controls\\n   $("#progressbar").progressbar({ value: 0 });\\n   $("#imageprogressbar").progressbar({ value: 0 });\\n   $("#slider").slider({ min: 0, max: 100, value: 50, step:1 });\\n   \\n//   $( "#servers" ).resizable({ handles: \\\'w\\\' });\\n//   $("#right").resizable({ handles: \\\'w\\\' });\\n   \\n   jQuery(\\\'.flash\\\').hide();\\n   if(jQuery(\\\'.flash\\\').html()!=\\\'\\\') jQuery(\\\'.flash\\\').slideDown(\\\'slow\\\');\\n   web2py_ajax_init();\\n});\\n\\nfunction web2py_trap_form(action,target) {\\n   jQuery(\\\'#\\\'+target+\\\' form\\\').each(function(i){\\n      var form=jQuery(this);\\n      jQuery(\\\':submit,.submit\\\',this).click(function(){\\n         jQuery(\\\'.flash\\\').hide().html(\\\'\\\');\\n         web2py_ajax_page(\\\'post\\\',action,form.serialize(),target);\\n         return false;\\n      });\\n   });\\n}\\nfunction web2py_ajax_page(method,action,data,target) {\\n  jQuery.ajax({\\\'type\\\':method,\\\'url\\\':action,\\\'data\\\':data,\\n    \\\'beforeSend\\\':function(xhr){\\n      xhr.setRequestHeader(\\\'web2py-component-location\\\',document.location);\\n      xhr.setRequestHeader(\\\'web2py-component-element\\\',target);},\\n    \\\'complete\\\':function(xhr,text){\\n      command=xhr.getResponseHeader(\\\'web2py-component-command\\\');\\n      if(command) eval(command);\\n      flash=xhr.getResponseHeader(\\\'web2py-component-flash\\\');\\n      if(flash) jQuery(\\\'.flash\\\').html(flash).slideDown();\\n      },\\n    \\\'success\\\': function(text) {\\n      jQuery(\\\'#\\\'+target).html(text);\\n      web2py_trap_form(action,target);\\n      web2py_ajax_init();\\n      }\\n    });\\n}\\nfunction web2py_component(action,target) {\\n    jQuery(document).ready(function(){ web2py_ajax_page(\\\'get\\\',action,null,target); });\\n}\\n//--></script>\\n\\n\\n    <script type="text/javascript">\\n    <!--\\n    /* this adds sfhover class to menu li items to make IE6 work */\\n    jQuery(document).ready(function(){\\n        jQuery(\\\'li.web2py-menu-expand\\\').hover(\\n            function () {\\n                jQuery(this).addClass(\\\'sfhover\\\');\\n            },\\n            function () {\\n                jQuery(this).removeClass(\\\'sfhover\\\');\\n            }\\n        );\\n    });\\n    //-->\\n    </script> \\n    <script type="text/javascript">\\n    /***********************************************\\n    * Photo Gallery Script v2.0- \\xc2\\xa9 Dynamic Drive (www.dynamicdrive.com)\\n    * This notice must stay intact for legal use.\\n    * Visit http://www.dynamicdrive.com/ for full source code\\n    ***********************************************/\\n    </script>\\n    <style type="text/css">\\n        .photogallery { /*CSS for TABLE containing a photo album*/\\n            color: #FFFFFF;\\n        }\\n        .photogallery img { /*CSS for images within an album*/\\n            border: 1px solid #66CCFF;\\n        }\\n        .photonavlinks { /*CSS for pagination DIV*/\\n            font: bold 14px Arial;\\n        }\\n        .photonavlinks a { /*CSS for each navigational link*/\\n            margin-right: 2px;\\n            margin-bottom: 3px;\\n            padding: 1px 5px;\\n            border:1px solid gray;\\n            text-decoration: none;\\n        }\\n        .photonavlinks a.current { /*CSS for currently selected navigational link*/\\n            background-color: #66CCFF;\\n        }\\n        .photogallery span {\\n            color: #66CCFF;\\n        }\\n    </style>\\n  </head>\\n  <body>\\n    <div class="sonos" id="fullpage">\\n\\n        \',escape=False)\nif request.vars and (request.vars[\'M\'] == \'P\' or request.vars[\'M\'] == \'L\'):\n    response.write(\'\\n            <div id="header">\\n                <div class="fg-buttonset fg-buttonset-single" id="navbuttons">\\n                    <button class="fg-button ui-state-default ui-priority-primary ui-corner-all" onclick="mobileselectzone()">Zones</button>\\n                    <button class="fg-button ui-state-default ui-priority-primary ui-corner-all" onclick="mobilenowplaying()">Now</button>\\n                    <button class="fg-button ui-state-default ui-priority-primary ui-corner-all" onclick="mobilequeue()">Queue</button>\\n                    <button class="fg-button ui-state-default ui-priority-primary ui-corner-all" onclick="mobileserver()">Server</button>\\n                </div>\\n            </div>\\n        \',escape=False)\nelse:\n    response.write(\'    \\n            <div id="header">\\n                <h1>\\n                  \',escape=False)\n    response.write(A(response.title or request.application, _href=URL(request.application,\'default\',\'index\')))\n    response.write(\'\\n                </h1>            \\n                \',escape=False)\n    response.write(\'/\'.join([\'\',request.application,request.controller,request.function]+request.args))\n    response.write(\'\\n                \',escape=False)\n    if \'auth\' in globals():\n        response.write(\'\\n                [ \',escape=False)\n        if not auth.user:\n            response.write(\'\\n                <a href="\',escape=False)\n            response.write(URL(r=request,f=\'user/login\'))\n            response.write(\'">\',escape=False)\n            response.write(T(\'login\'))\n            response.write(\'</a> |\\n                <a href="\',escape=False)\n            response.write(URL(r=request,f=\'user/register\'))\n            response.write(\'">\',escape=False)\n            response.write(T(\'register\'))\n            response.write(\'</a> |\\n                <a href="\',escape=False)\n            response.write(URL(r=request,f=\'user/request_reset_password\'))\n            response.write(\'">\',escape=False)\n            response.write(T(\'lost password\'))\n            response.write(\'</a>\\n                \',escape=False)\n        else:\n            response.write(\'\\n                \',escape=False)\n            response.write(auth.user.first_name)\n            response.write(\' |\\n                <a href="\',escape=False)\n            response.write(URL(r=request,f=\'user/logout\'))\n            response.write(\'">\',escape=False)\n            response.write(T(\'logout\'))\n            response.write(\'</a> |\\n                <a href="\',escape=False)\n            response.write(URL(r=request,f=\'user/change_password\'))\n            response.write(\'">\',escape=False)\n            response.write(T(\'change password\'))\n            response.write(\'</a> |\\n                <a href="\',escape=False)\n            response.write(URL(r=request,f=\'user/profile\'))\n            response.write(\'">\',escape=False)\n            response.write(T(\'edit profile\'))\n            response.write(\'</a>\\n                \',escape=False)\n            pass\n        response.write(\' ]\\n                \',escape=False)\n        pass\n    response.write(\'\\n                <a href="#" onclick="populategallery();">\',escape=False)\n    response.write(T(\'Gallery\'))\n    response.write(\'</a> |\\n                <a href="#" onclick="populateflow();">\',escape=False)\n    response.write(T(\'Flow\'))\n    response.write(\'</a> |\\n                <a href="#" onclick="pcselectindex();">\',escape=False)\n    response.write(T(\'List\'))\n    response.write(\'</a> |\\n                <a href="#" onclick="cacheimages();">\',escape=False)\n    response.write(T(\'(Cache Images)\'))\n    response.write(\'</a> |\\n                <a href="\',escape=False)\n    response.write(URL(r=request,f=\'clearalbums\'))\n    response.write(\'">\',escape=False)\n    response.write(T(\'(Clear Albums)\'))\n    response.write(\'</a>\\n            </div>\\n            \',escape=False)\n    pass\nresponse.write(\'\\n\\n        <div id="left">\\n            \\n<h2>\',escape=False)\nresponse.write(request.args(0).replace(\'_\',\' \').capitalize())\nresponse.write(\'</h2>\\n\',escape=False)\nresponse.write(form)\nresponse.write(\'\\n\',escape=False)\nif request.args(0)==\'login\':\n    response.write(\'\\n<a href="\',escape=False)\n    response.write(URL(r=request,args=\'register\'))\n    response.write(\'">register</a><br />\\n<a href="\',escape=False)\n    response.write(URL(r=request,args=\'retrieve_password\'))\n    response.write(\'">lost password</a><br />\\n\',escape=False)\n    pass\nresponse.write(\'\\n\\n        </div>\\n\\n        <div id="right">\\n            \',escape=False)\nservers()\nresponse.write(\'\\n        </div>\\n\\n        <div id="centretop">\\n            \',escape=False)\nnowplaying()\nresponse.write(\'\\n        </div>\\n        <div id="centremiddle">\\n            \',escape=False)\ncontrols()\nresponse.write(\'\\n        </div>\\n        <div id="centrebottom">\\n            \',escape=False)\nqueue()\nresponse.write(\'\\n        </div>\\n\\n        <div id="middle">\\n            \',escape=False)\ngallery()\nresponse.write(\'\\n        </div>\\n        <div id="middle2">\\n            \',escape=False)\nflow()\nresponse.write(\'\\n        </div>\\n\\n        <div id="footer">\\n            \',escape=False)\nmessagebar()\nresponse.write(\'\\n        </div>\\n\\n    </div>\\n  </body>\\n</html>\\n\',escape=False)'
p6
sS'traceback'
p7
S'Traceback (most recent call last):\n  File "/Users/bwhitman/outside/echonest/now-playing-radiator/python-sonos/web2py/gluon/restricted.py", line 173, in restricted\n    exec ccode in environment\n  File "/Users/bwhitman/outside/echonest/now-playing-radiator/python-sonos/web2py/applications/sonospy/views/default/user.html", line 140, in <module>\nNameError: name \'servers\' is not defined\n'
p8
s.